; Function Attrs: mustprogress nofree norecurse nosync nounwind willreturn memory(readwrite, argmem: none, inaccessiblemem: none) uwtable
define dso_local range(i32 -1, 1) i32 @sapi_register_treat_data(ptr noundef %0) local_unnamed_addr #12 {
  %2 = load i8, ptr getelementptr inbounds nuw (i8, ptr @sapi_globals, i64 436), align 4, !tbaa !123, !range !90, !noundef !80
  %3 = trunc nuw i8 %2 to i1
  %4 = load ptr, ptr getelementptr inbounds nuw (i8, ptr @executor_globals, i64 512), align 8
  %5 = icmp ne ptr %4, null
  %or.cond = select i1 %3, i1 %5, i1 false
  br i1 %or.cond, label %7, label %6

6:                                                ; preds = %1
  store ptr %0, ptr getelementptr inbounds nuw (i8, ptr @sapi_module, i64 176), align 8, !tbaa !148
  br label %7

7:                                                ; preds = %1, %6
  %.0 = phi i32 [ 0, %6 ], [ -1, %1 ]
  ret i32 %.0
}